; Function Attrs: mustprogress uwtable
define internal void @"_ZN4LuauL8fnVisitVIZNS_16toStringDetailedEPKNS_11TypePackVarERNS_15ToStringOptionsEE3$_0KNS_9ClassTypeEEEvRT_PNSt11conditionalIXsr3stdE10is_const_vIT0_EEKvvE4typeE"(ptr noundef nonnull readonly align 8 captures(none) dereferenceable(16) %0, ptr noundef nonnull %1) #6 personality ptr @__gxx_personality_v0 {
  %3 = alloca %"struct.Luau::ClassType", align 8
  call void @_ZN4Luau9ClassTypeC2ERKS0_(ptr noundef nonnull align 8 dereferenceable(232) %3, ptr noundef nonnull align 8 dereferenceable(232) %1)
  %.val = load ptr, ptr %0, align 8, !tbaa !652
  %.val4 = load ptr, ptr %3, align 8
  %4 = getelementptr inbounds nuw i8, ptr %3, i64 8
  %.val5 = load i64, ptr %4, align 8
  %.val.val = load ptr, ptr %.val, align 8, !tbaa !28
  %.val.val.val = load ptr, ptr %.val.val, align 8, !tbaa !39
  %5 = getelementptr i8, ptr %.val.val, i64 8
  %.val.val.val6 = load ptr, ptr %5, align 8, !tbaa !86
  %6 = getelementptr i8, ptr %.val.val.val, i64 16
  %.val.val.val.val = load i64, ptr %6, align 8, !tbaa !64
  %.not.i.i.i = icmp ne i64 %.val.val.val.val, 0
  %.phi.trans.insert2.i.i.i = getelementptr inbounds nuw i8, ptr %.val.val.val6, i64 8
  %.pre3.i.i.i = load i64, ptr %.phi.trans.insert2.i.i.i, align 8, !tbaa !23
  %7 = icmp ugt i64 %.pre3.i.i.i, %.val.val.val.val
  %or.cond.i.i.i = select i1 %.not.i.i.i, i1 %7, i1 false
  br i1 %or.cond.i.i.i, label %"_ZZN4Luau16toStringDetailedEPKNS_11TypePackVarERNS_15ToStringOptionsEENK3$_0clINS_9ClassTypeEEEDaT_.exit", label %._crit_edge.i.i.i

._crit_edge.i.i.i:                                ; preds = %2
  %8 = sub i64 4611686018427387903, %.pre3.i.i.i
  %9 = icmp ult i64 %8, %.val5
  br i1 %9, label %10, label %_ZNSt7__cxx1112basic_stringIcSt11char_traitsIcESaIcEEpLERKS4_.exit.i.i.i

10:                                               ; preds = %._crit_edge.i.i.i
  invoke void @_ZSt20__throw_length_errorPKc(ptr noundef nonnull @.str.183) #31
          to label %.noexc unwind label %12

.noexc:                                           ; preds = %10
  unreachable

_ZNSt7__cxx1112basic_stringIcSt11char_traitsIcESaIcEEpLERKS4_.exit.i.i.i: ; preds = %._crit_edge.i.i.i
  %11 = invoke noundef nonnull align 8 dereferenceable(32) ptr @_ZNSt7__cxx1112basic_stringIcSt11char_traitsIcESaIcEE9_M_appendEPKcm(ptr noundef nonnull align 8 dereferenceable(32) %.val.val.val6, ptr noundef %.val4, i64 noundef %.val5)
          to label %"_ZZN4Luau16toStringDetailedEPKNS_11TypePackVarERNS_15ToStringOptionsEENK3$_0clINS_9ClassTypeEEEDaT_.exit" unwind label %12

"_ZZN4Luau16toStringDetailedEPKNS_11TypePackVarERNS_15ToStringOptionsEENK3$_0clINS_9ClassTypeEEEDaT_.exit": ; preds = %2, %_ZNSt7__cxx1112basic_stringIcSt11char_traitsIcESaIcEEpLERKS4_.exit.i.i.i
  call void @_ZN4Luau9ClassTypeD2Ev(ptr noundef nonnull align 8 dereferenceable(232) %3) #29
  ret void

12:                                               ; preds = %_ZNSt7__cxx1112basic_stringIcSt11char_traitsIcESaIcEEpLERKS4_.exit.i.i.i, %10
  %13 = landingpad { ptr, i32 }
          cleanup
  call void @_ZN4Luau9ClassTypeD2Ev(ptr noundef nonnull align 8 dereferenceable(232) %3) #29
  resume { ptr, i32 } %13
}